; Function Attrs: nofree norecurse nosync nounwind memory(readwrite, inaccessiblemem: none) uwtable
define void @Gia_ManUpdateMapping(ptr noundef readonly captures(none) %0, ptr noundef readonly captures(none) %1, ptr noundef readonly captures(none) %2) local_unnamed_addr #7 {
  %4 = alloca %struct.Vec_Int_t_, align 8
  %5 = getelementptr i8, ptr %1, i64 4
  %.val17 = load i32, ptr %5, align 4, !tbaa !31
  %6 = icmp sgt i32 %.val17, 0
  br i1 %6, label %.lr.ph, label %.critedge

.lr.ph:                                           ; preds = %3
  %7 = getelementptr i8, ptr %1, i64 8
  %8 = getelementptr inbounds nuw i8, ptr %0, i64 272
  %9 = getelementptr i8, ptr %2, i64 8
  br label %10

10:                                               ; preds = %.lr.ph, %10
  %indvars.iv = phi i64 [ 0, %.lr.ph ], [ %indvars.iv.next, %10 ]
  %.val12 = load ptr, ptr %7, align 8, !tbaa !8
  %11 = getelementptr inbounds nuw i32, ptr %.val12, i64 %indvars.iv
  %12 = load i32, ptr %11, align 4, !tbaa !34
  call void @llvm.lifetime.start.p0(i64 16, ptr nonnull %4)
  %13 = load ptr, ptr %8, align 8, !tbaa !47
  %14 = getelementptr i8, ptr %13, i64 8
  %.val13 = load ptr, ptr %14, align 8, !tbaa !48
  %15 = sext i32 %12 to i64
  %16 = getelementptr inbounds %struct.Vec_Int_t_, ptr %.val13, i64 %15
  call void @llvm.memcpy.p0.p0.i64(ptr noundef nonnull align 8 dereferenceable(16) %4, ptr noundef nonnull align 8 dereferenceable(16) %16, i64 16, i1 false), !tbaa.struct !69
  %.val15 = load ptr, ptr %9, align 8, !tbaa !48
  %17 = getelementptr inbounds nuw %struct.Vec_Int_t_, ptr %.val15, i64 %indvars.iv
  tail call void @llvm.memcpy.p0.p0.i64(ptr noundef nonnull align 8 dereferenceable(16) %16, ptr noundef nonnull align 8 dereferenceable(16) %17, i64 16, i1 false), !tbaa.struct !69
  %.val16 = load ptr, ptr %9, align 8, !tbaa !48
  %18 = getelementptr inbounds nuw %struct.Vec_Int_t_, ptr %.val16, i64 %indvars.iv
  call void @llvm.memcpy.p0.p0.i64(ptr noundef nonnull align 8 dereferenceable(16) %18, ptr noundef nonnull align 8 dereferenceable(16) %4, i64 16, i1 false), !tbaa.struct !69
  call void @llvm.lifetime.end.p0(i64 16, ptr nonnull %4)
  %indvars.iv.next = add nuw nsw i64 %indvars.iv, 1
  %.val = load i32, ptr %5, align 4, !tbaa !31
  %19 = sext i32 %.val to i64
  %20 = icmp slt i64 %indvars.iv.next, %19
  br i1 %20, label %10, label %.critedge, !llvm.loop !71

.critedge:                                        ; preds = %10, %3
  ret void
}